target datalayout = "e-m:e-p270:32:32-p271:32:32-p272:64:64-i64:64-i128:128-f80:128-n8:16:32:64-S128"
target triple = "x86_64-pc-linux-gnu"

%"class.ue2::ComponentWordBoundary" = type <{ %"class.ue2::Component", i32, i32, i8, i8, i8, [5 x i8] }>
%"class.ue2::Component" = type { ptr, i32, i32 }

@_ZTVN3ue29ComponentE = external unnamed_addr constant { [17 x ptr] }, align 8

; Function Attrs: mustprogress nounwind uwtable
define linkonce_odr hidden void @_ZN3ue29ComponentC2ERKS0_(ptr noundef nonnull align 8 dereferenceable(16) %0, ptr noundef nonnull align 8 dereferenceable(16) %1) unnamed_addr #3 comdat align 2 {
  %3 = alloca ptr, align 8
  %4 = alloca ptr, align 8
  store ptr %0, ptr %3, align 8
  store ptr %1, ptr %4, align 8
  %5 = load ptr, ptr %3, align 8
  store ptr getelementptr inbounds inrange(-16, 120) ({ [17 x ptr] }, ptr @_ZTVN3ue29ComponentE, i32 0, i32 0, i32 2), ptr %5, align 8
  %6 = getelementptr inbounds nuw %"class.ue2::Component", ptr %5, i32 0, i32 1
  %7 = load ptr, ptr %4, align 8
  %8 = getelementptr inbounds nuw %"class.ue2::Component", ptr %7, i32 0, i32 1
  %9 = load i32, ptr %8, align 8
  store i32 %9, ptr %6, align 8
  %10 = getelementptr inbounds nuw %"class.ue2::Component", ptr %5, i32 0, i32 2
  %11 = load ptr, ptr %4, align 8
  %12 = getelementptr inbounds nuw %"class.ue2::Component", ptr %11, i32 0, i32 2
  %13 = load i32, ptr %12, align 4
  store i32 %13, ptr %10, align 4
  ret void
}

; Function Attrs: mustprogress uwtable
define linkonce_odr hidden void @_ZN3ue221ComponentWordBoundaryC2ERKS0_(ptr noundef nonnull align 8 dereferenceable(27) %0, ptr noundef nonnull align 8 dereferenceable(27) %1) unnamed_addr #0 comdat align 2 {
  %3 = alloca ptr, align 8
  %4 = alloca ptr, align 8
  store ptr %0, ptr %3, align 8
  store ptr %1, ptr %4, align 8
  %5 = load ptr, ptr %3, align 8
  %6 = load ptr, ptr %4, align 8
  call void @_ZN3ue29ComponentC2ERKS0_(ptr noundef nonnull align 8 dereferenceable(16) %5, ptr noundef nonnull align 8 dereferenceable(16) %6)
  store ptr getelementptr inbounds inrange(-16, 120) ({ [17 x ptr] }, ptr @_ZTVN3ue221ComponentWordBoundaryE, i32 0, i32 0, i32 2), ptr %5, align 8
  %7 = getelementptr inbounds nuw %"class.ue2::ComponentWordBoundary", ptr %5, i32 0, i32 1
  %8 = load ptr, ptr %4, align 8
  %9 = getelementptr inbounds nuw %"class.ue2::ComponentWordBoundary", ptr %8, i32 0, i32 1
  %10 = load i32, ptr %9, align 8
  store i32 %10, ptr %7, align 8
  %11 = getelementptr inbounds nuw %"class.ue2::ComponentWordBoundary", ptr %5, i32 0, i32 2
  %12 = load ptr, ptr %4, align 8
  %13 = getelementptr inbounds nuw %"class.ue2::ComponentWordBoundary", ptr %12, i32 0, i32 2
  %14 = load i32, ptr %13, align 4
  store i32 %14, ptr %11, align 4
  %15 = getelementptr inbounds nuw %"class.ue2::ComponentWordBoundary", ptr %5, i32 0, i32 3
  %16 = load ptr, ptr %4, align 8
  %17 = getelementptr inbounds nuw %"class.ue2::ComponentWordBoundary", ptr %16, i32 0, i32 3
  %18 = load i8, ptr %17, align 8, !range !5, !noundef !6
  %19 = trunc i8 %18 to i1
  %20 = zext i1 %19 to i8
  store i8 %20, ptr %15, align 8
  %21 = getelementptr inbounds nuw %"class.ue2::ComponentWordBoundary", ptr %5, i32 0, i32 4
  %22 = load ptr, ptr %4, align 8
  %23 = getelementptr inbounds nuw %"class.ue2::ComponentWordBoundary", ptr %22, i32 0, i32 4
  %24 = load i8, ptr %23, align 1, !range !5, !noundef !6
  %25 = trunc i8 %24 to i1
  %26 = zext i1 %25 to i8
  store i8 %26, ptr %21, align 1
  %27 = getelementptr inbounds nuw %"class.ue2::ComponentWordBoundary", ptr %5, i32 0, i32 5
  %28 = load ptr, ptr %4, align 8
  %29 = getelementptr inbounds nuw %"class.ue2::ComponentWordBoundary", ptr %28, i32 0, i32 5
  %30 = load i8, ptr %29, align 2, !range !5, !noundef !6
  %31 = trunc i8 %30 to i1
  %32 = zext i1 %31 to i8
  store i8 %32, ptr %27, align 2
  ret void
}

; Function Attrs: mustprogress uwtable
define hidden noundef ptr @_ZNK3ue221ComponentWordBoundary5cloneEv(ptr noundef nonnull align 8 dereferenceable(27) %0) unnamed_addr #0 align 2 personality ptr @__gxx_personality_v0 {
  %2 = alloca ptr, align 8
  %3 = alloca ptr, align 8
  %4 = alloca i32, align 4
  store ptr %0, ptr %2, align 8
  %5 = load ptr, ptr %2, align 8
  %6 = call noalias noundef nonnull ptr @_Znwm(i64 noundef 32) #15
  invoke void @_ZN3ue221ComponentWordBoundaryC2ERKS0_(ptr noundef nonnull align 8 dereferenceable(27) %6, ptr noundef nonnull align 8 dereferenceable(27) %5)
          to label %7 unwind label %8

7:                                                ; preds = %1
  ret ptr %6

8:                                                ; preds = %1
  %9 = landingpad { ptr, i32 }
          cleanup
  %10 = extractvalue { ptr, i32 } %9, 0
  store ptr %10, ptr %3, align 8
  %11 = extractvalue { ptr, i32 } %9, 1
  store i32 %11, ptr %4, align 4
  call void @_ZdlPv(ptr noundef %6) #14
  br label %12

12:                                               ; preds = %8
  %13 = load ptr, ptr %3, align 8
  %14 = load i32, ptr %4, align 4
  %15 = insertvalue { ptr, i32 } poison, ptr %13, 0
  %16 = insertvalue { ptr, i32 } %15, i32 %14, 1
  resume { ptr, i32 } %16
}