; Function Attrs: mustprogress uwtable
define hidden noalias noundef nonnull ptr @_ZNK3ue221ComponentWordBoundary5cloneEv(ptr noundef nonnull readonly align 8 captures(none) dereferenceable(27) %0) unnamed_addr #0 align 2 personality ptr @__gxx_personality_v0 {
  %2 = tail call noalias noundef nonnull dereferenceable(32) ptr @_Znwm(i64 noundef 32) #10
  %3 = getelementptr inbounds nuw i8, ptr %2, i64 8
  %4 = getelementptr inbounds nuw i8, ptr %0, i64 8
  %5 = load i32, ptr %4, align 8
  store i32 %5, ptr %3, align 8
  %6 = getelementptr inbounds nuw i8, ptr %2, i64 12
  %7 = getelementptr inbounds nuw i8, ptr %0, i64 12
  %8 = load i32, ptr %7, align 4
  store i32 %8, ptr %6, align 4
  store ptr getelementptr inbounds nuw inrange(-16, 120) (i8, ptr @_ZTVN3ue221ComponentWordBoundaryE, i64 16), ptr %2, align 8
  %9 = getelementptr inbounds nuw i8, ptr %2, i64 16
  %10 = getelementptr inbounds nuw i8, ptr %0, i64 16
  %11 = load i32, ptr %10, align 8
  store i32 %11, ptr %9, align 8
  %12 = getelementptr inbounds nuw i8, ptr %2, i64 20
  %13 = getelementptr inbounds nuw i8, ptr %0, i64 20
  %14 = load i32, ptr %13, align 4
  store i32 %14, ptr %12, align 4
  %15 = getelementptr inbounds nuw i8, ptr %2, i64 24
  %16 = getelementptr inbounds nuw i8, ptr %0, i64 24
  %17 = load i8, ptr %16, align 8, !range !5, !noundef !6
  store i8 %17, ptr %15, align 8
  %18 = getelementptr inbounds nuw i8, ptr %2, i64 25
  %19 = getelementptr inbounds nuw i8, ptr %0, i64 25
  %20 = load i8, ptr %19, align 1, !range !5, !noundef !6
  store i8 %20, ptr %18, align 1
  %21 = getelementptr inbounds nuw i8, ptr %2, i64 26
  %22 = getelementptr inbounds nuw i8, ptr %0, i64 26
  %23 = load i8, ptr %22, align 2, !range !5, !noundef !6
  store i8 %23, ptr %21, align 2
  ret ptr %2
}